; Function Attrs: null_pointer_is_valid sspstrong uwtable
define internal void @extcap_free_tokenized_sentence(ptr noundef %0, ptr readnone captures(none) %1) #0 {
  %3 = icmp eq ptr %0, null
  br i1 %3, label %8, label %4

4:                                                ; preds = %2
  %5 = load ptr, ptr %0, align 8
  tail call void @g_free(ptr noundef %5)
  %6 = getelementptr inbounds nuw i8, ptr %0, i64 8
  %7 = load ptr, ptr %6, align 8
  tail call void @g_hash_table_destroy(ptr noundef %7)
  tail call void @g_free(ptr noundef nonnull %0)
  br label %8

8:                                                ; preds = %2, %4
  ret void
}